; Function Attrs: mustprogress uwtable
define hidden void @_ZN3smt33eq_root_propagation_justification15get_antecedentsERNS_19conflict_resolutionE(ptr noundef nonnull readonly align 8 captures(none) dereferenceable(24) %0, ptr noundef nonnull align 8 dereferenceable(356) %1) unnamed_addr #5 align 2 {
  %3 = alloca %"struct.std::pair", align 8
  %4 = getelementptr inbounds nuw i8, ptr %0, i64 16
  %5 = load ptr, ptr %4, align 8, !tbaa !184
  %6 = getelementptr inbounds nuw i8, ptr %5, i64 8
  %7 = load ptr, ptr %6, align 8, !tbaa !97
  %.not.i = icmp eq ptr %5, %7
  br i1 %.not.i, label %_ZN3smt19conflict_resolution7mark_eqEPNS_5enodeES2_.exit, label %8

8:                                                ; preds = %2
  %9 = load ptr, ptr %5, align 8, !tbaa !109
  %10 = load i32, ptr %9, align 4, !tbaa !110
  %11 = load ptr, ptr %7, align 8, !tbaa !109
  %12 = load i32, ptr %11, align 4, !tbaa !110
  %13 = icmp ugt i32 %10, %12
  %spec.select.i = select i1 %13, ptr %7, ptr %5
  %spec.select6.i = select i1 %13, ptr %5, ptr %7
  call void @llvm.lifetime.start.p0(i64 16, ptr nonnull %3) #22
  store ptr %spec.select.i, ptr %3, align 8, !tbaa !111
  %14 = getelementptr inbounds nuw i8, ptr %3, i64 8
  store ptr %spec.select6.i, ptr %14, align 8, !tbaa !113
  %15 = getelementptr inbounds nuw i8, ptr %1, i64 112
  %16 = call noundef zeroext i1 @_ZN10chashtableISt4pairIPN3smt5enodeES3_EN12obj_pair_setIS2_S2_E9hash_procENS6_7eq_procEE20insert_if_not_there2ERKS4_(ptr noundef nonnull align 8 dereferenceable(64) %15, ptr noundef nonnull align 8 dereferenceable(16) %3)
  br i1 %16, label %17, label %36

17:                                               ; preds = %8
  %18 = getelementptr inbounds nuw i8, ptr %1, i64 104
  %19 = load ptr, ptr %18, align 8, !tbaa !114
  %20 = icmp eq ptr %19, null
  br i1 %20, label %27, label %21

21:                                               ; preds = %17
  %22 = getelementptr inbounds i8, ptr %19, i64 -4
  %23 = load i32, ptr %22, align 4, !tbaa !29
  %24 = getelementptr inbounds i8, ptr %19, i64 -8
  %25 = load i32, ptr %24, align 4, !tbaa !29
  %26 = icmp eq i32 %23, %25
  br i1 %26, label %27, label %_ZN6vectorISt4pairIPN3smt5enodeES3_ELb0EjE9push_backERKS4_.exit.i

27:                                               ; preds = %21, %17
  call void @_ZN6vectorISt4pairIPN3smt5enodeES3_ELb0EjE13expand_vectorEv(ptr noundef nonnull align 8 dereferenceable(8) %18)
  %.pre.i.i = load ptr, ptr %18, align 8, !tbaa !114
  %.phi.trans.insert.i.i = getelementptr inbounds i8, ptr %.pre.i.i, i64 -4
  %.pre2.i.i = load i32, ptr %.phi.trans.insert.i.i, align 4, !tbaa !29
  br label %_ZN6vectorISt4pairIPN3smt5enodeES3_ELb0EjE9push_backERKS4_.exit.i

_ZN6vectorISt4pairIPN3smt5enodeES3_ELb0EjE9push_backERKS4_.exit.i: ; preds = %27, %21
  %28 = phi i32 [ %.pre2.i.i, %27 ], [ %23, %21 ]
  %29 = phi ptr [ %.pre.i.i, %27 ], [ %19, %21 ]
  %30 = zext i32 %28 to i64
  %31 = getelementptr inbounds nuw %"struct.std::pair", ptr %29, i64 %30
  call void @llvm.memcpy.p0.p0.i64(ptr noundef nonnull align 8 dereferenceable(16) %31, ptr noundef nonnull align 8 dereferenceable(16) %3, i64 16, i1 false)
  %32 = load ptr, ptr %18, align 8, !tbaa !114
  %33 = getelementptr inbounds i8, ptr %32, i64 -4
  %34 = load i32, ptr %33, align 4, !tbaa !29
  %35 = add i32 %34, 1
  store i32 %35, ptr %33, align 4, !tbaa !29
  br label %36

36:                                               ; preds = %_ZN6vectorISt4pairIPN3smt5enodeES3_ELb0EjE9push_backERKS4_.exit.i, %8
  call void @llvm.lifetime.end.p0(i64 16, ptr nonnull %3) #22
  br label %_ZN3smt19conflict_resolution7mark_eqEPNS_5enodeES2_.exit

_ZN3smt19conflict_resolution7mark_eqEPNS_5enodeES2_.exit: ; preds = %2, %36
  ret void
}